target datalayout = "e-m:e-p270:32:32-p271:32:32-p272:64:64-i64:64-i128:128-f80:128-n8:16:32:64-S128"
target triple = "x86_64-pc-linux-gnu"

%struct.lhash_st = type { ptr, ptr, ptr, ptr, ptr, ptr, ptr, i32, i32, i32, i32, i64, i64, i64, i32 }
%struct.lhash_node_st = type { ptr, ptr, i64 }

@.str = private unnamed_addr constant [32 x i8] c"../openssl/crypto/lhash/lhash.c\00", align 1

; Function Attrs: nounwind uwtable
define internal void @contract(ptr noundef %0) #0 {
  %2 = alloca ptr, align 8
  %3 = alloca ptr, align 8
  %4 = alloca ptr, align 8
  %5 = alloca ptr, align 8
  store ptr %0, ptr %2, align 8, !tbaa !3
  call void @llvm.lifetime.start.p0(i64 8, ptr %3) #5
  call void @llvm.lifetime.start.p0(i64 8, ptr %4) #5
  call void @llvm.lifetime.start.p0(i64 8, ptr %5) #5
  %6 = load ptr, ptr %2, align 8, !tbaa !3
  %7 = getelementptr inbounds nuw %struct.lhash_st, ptr %6, i32 0, i32 0
  %8 = load ptr, ptr %7, align 8, !tbaa !17
  %9 = load ptr, ptr %2, align 8, !tbaa !3
  %10 = getelementptr inbounds nuw %struct.lhash_st, ptr %9, i32 0, i32 9
  %11 = load i32, ptr %10, align 8, !tbaa !43
  %12 = load ptr, ptr %2, align 8, !tbaa !3
  %13 = getelementptr inbounds nuw %struct.lhash_st, ptr %12, i32 0, i32 10
  %14 = load i32, ptr %13, align 4, !tbaa !22
  %15 = add i32 %11, %14
  %16 = sub i32 %15, 1
  %17 = zext i32 %16 to i64
  %18 = getelementptr inbounds nuw ptr, ptr %8, i64 %17
  %19 = load ptr, ptr %18, align 8, !tbaa !32
  store ptr %19, ptr %5, align 8, !tbaa !32
  %20 = load ptr, ptr %2, align 8, !tbaa !3
  %21 = getelementptr inbounds nuw %struct.lhash_st, ptr %20, i32 0, i32 0
  %22 = load ptr, ptr %21, align 8, !tbaa !17
  %23 = load ptr, ptr %2, align 8, !tbaa !3
  %24 = getelementptr inbounds nuw %struct.lhash_st, ptr %23, i32 0, i32 9
  %25 = load i32, ptr %24, align 8, !tbaa !43
  %26 = load ptr, ptr %2, align 8, !tbaa !3
  %27 = getelementptr inbounds nuw %struct.lhash_st, ptr %26, i32 0, i32 10
  %28 = load i32, ptr %27, align 4, !tbaa !22
  %29 = add i32 %25, %28
  %30 = sub i32 %29, 1
  %31 = zext i32 %30 to i64
  %32 = getelementptr inbounds nuw ptr, ptr %22, i64 %31
  store ptr null, ptr %32, align 8, !tbaa !32
  %33 = load ptr, ptr %2, align 8, !tbaa !3
  %34 = getelementptr inbounds nuw %struct.lhash_st, ptr %33, i32 0, i32 9
  %35 = load i32, ptr %34, align 8, !tbaa !43
  %36 = icmp eq i32 %35, 0
  br i1 %36, label %37, label %75

37:                                               ; preds = %1
  %38 = load ptr, ptr %2, align 8, !tbaa !3
  %39 = getelementptr inbounds nuw %struct.lhash_st, ptr %38, i32 0, i32 0
  %40 = load ptr, ptr %39, align 8, !tbaa !17
  %41 = load ptr, ptr %2, align 8, !tbaa !3
  %42 = getelementptr inbounds nuw %struct.lhash_st, ptr %41, i32 0, i32 10
  %43 = load i32, ptr %42, align 4, !tbaa !22
  %44 = zext i32 %43 to i64
  %45 = mul i64 8, %44
  %46 = trunc i64 %45 to i32
  %47 = zext i32 %46 to i64
  %48 = call ptr @CRYPTO_realloc(ptr noundef %40, i64 noundef %47, ptr noundef @.str, i32 noundef 295)
  store ptr %48, ptr %3, align 8, !tbaa !40
  %49 = load ptr, ptr %3, align 8, !tbaa !40
  %50 = icmp eq ptr %49, null
  br i1 %50, label %51, label %56

51:                                               ; preds = %37
  %52 = load ptr, ptr %2, align 8, !tbaa !3
  %53 = getelementptr inbounds nuw %struct.lhash_st, ptr %52, i32 0, i32 14
  %54 = load i32, ptr %53, align 8, !tbaa !39
  %55 = add nsw i32 %54, 1
  store i32 %55, ptr %53, align 8, !tbaa !39
  br label %60

56:                                               ; preds = %37
  %57 = load ptr, ptr %3, align 8, !tbaa !40
  %58 = load ptr, ptr %2, align 8, !tbaa !3
  %59 = getelementptr inbounds nuw %struct.lhash_st, ptr %58, i32 0, i32 0
  store ptr %57, ptr %59, align 8, !tbaa !17
  br label %60

60:                                               ; preds = %56, %51
  %61 = load ptr, ptr %2, align 8, !tbaa !3
  %62 = getelementptr inbounds nuw %struct.lhash_st, ptr %61, i32 0, i32 8
  %63 = load i32, ptr %62, align 4, !tbaa !21
  %64 = udiv i32 %63, 2
  store i32 %64, ptr %62, align 4, !tbaa !21
  %65 = load ptr, ptr %2, align 8, !tbaa !3
  %66 = getelementptr inbounds nuw %struct.lhash_st, ptr %65, i32 0, i32 10
  %67 = load i32, ptr %66, align 4, !tbaa !22
  %68 = udiv i32 %67, 2
  store i32 %68, ptr %66, align 4, !tbaa !22
  %69 = load ptr, ptr %2, align 8, !tbaa !3
  %70 = getelementptr inbounds nuw %struct.lhash_st, ptr %69, i32 0, i32 10
  %71 = load i32, ptr %70, align 4, !tbaa !22
  %72 = sub i32 %71, 1
  %73 = load ptr, ptr %2, align 8, !tbaa !3
  %74 = getelementptr inbounds nuw %struct.lhash_st, ptr %73, i32 0, i32 9
  store i32 %72, ptr %74, align 8, !tbaa !43
  br label %80

75:                                               ; preds = %1
  %76 = load ptr, ptr %2, align 8, !tbaa !3
  %77 = getelementptr inbounds nuw %struct.lhash_st, ptr %76, i32 0, i32 9
  %78 = load i32, ptr %77, align 8, !tbaa !43
  %79 = add i32 %78, -1
  store i32 %79, ptr %77, align 8, !tbaa !43
  br label %80

80:                                               ; preds = %75, %60
  %81 = load ptr, ptr %2, align 8, !tbaa !3
  %82 = getelementptr inbounds nuw %struct.lhash_st, ptr %81, i32 0, i32 7
  %83 = load i32, ptr %82, align 8, !tbaa !20
  %84 = add i32 %83, -1
  store i32 %84, ptr %82, align 8, !tbaa !20
  %85 = load ptr, ptr %2, align 8, !tbaa !3
  %86 = getelementptr inbounds nuw %struct.lhash_st, ptr %85, i32 0, i32 0
  %87 = load ptr, ptr %86, align 8, !tbaa !17
  %88 = load ptr, ptr %2, align 8, !tbaa !3
  %89 = getelementptr inbounds nuw %struct.lhash_st, ptr %88, i32 0, i32 9
  %90 = load i32, ptr %89, align 8, !tbaa !43
  %91 = sext i32 %90 to i64
  %92 = getelementptr inbounds ptr, ptr %87, i64 %91
  %93 = load ptr, ptr %92, align 8, !tbaa !32
  store ptr %93, ptr %4, align 8, !tbaa !32
  %94 = load ptr, ptr %4, align 8, !tbaa !32
  %95 = icmp eq ptr %94, null
  br i1 %95, label %96, label %106

96:                                               ; preds = %80
  %97 = load ptr, ptr %5, align 8, !tbaa !32
  %98 = load ptr, ptr %2, align 8, !tbaa !3
  %99 = getelementptr inbounds nuw %struct.lhash_st, ptr %98, i32 0, i32 0
  %100 = load ptr, ptr %99, align 8, !tbaa !17
  %101 = load ptr, ptr %2, align 8, !tbaa !3
  %102 = getelementptr inbounds nuw %struct.lhash_st, ptr %101, i32 0, i32 9
  %103 = load i32, ptr %102, align 8, !tbaa !43
  %104 = sext i32 %103 to i64
  %105 = getelementptr inbounds ptr, ptr %100, i64 %104
  store ptr %97, ptr %105, align 8, !tbaa !32
  br label %120

106:                                              ; preds = %80
  br label %107

107:                                              ; preds = %112, %106
  %108 = load ptr, ptr %4, align 8, !tbaa !32
  %109 = getelementptr inbounds nuw %struct.lhash_node_st, ptr %108, i32 0, i32 1
  %110 = load ptr, ptr %109, align 8, !tbaa !34
  %111 = icmp ne ptr %110, null
  br i1 %111, label %112, label %116

112:                                              ; preds = %107
  %113 = load ptr, ptr %4, align 8, !tbaa !32
  %114 = getelementptr inbounds nuw %struct.lhash_node_st, ptr %113, i32 0, i32 1
  %115 = load ptr, ptr %114, align 8, !tbaa !34
  store ptr %115, ptr %4, align 8, !tbaa !32
  br label %107, !llvm.loop !48

116:                                              ; preds = %107
  %117 = load ptr, ptr %5, align 8, !tbaa !32
  %118 = load ptr, ptr %4, align 8, !tbaa !32
  %119 = getelementptr inbounds nuw %struct.lhash_node_st, ptr %118, i32 0, i32 1
  store ptr %117, ptr %119, align 8, !tbaa !34
  br label %120

120:                                              ; preds = %116, %96
  call void @llvm.lifetime.end.p0(i64 8, ptr %5) #5
  call void @llvm.lifetime.end.p0(i64 8, ptr %4) #5
  call void @llvm.lifetime.end.p0(i64 8, ptr %3) #5
  ret void
}

; Function Attrs: nounwind uwtable
define internal ptr @getrn(ptr noundef %0, ptr noundef %1, ptr noundef %2) #0 {
  %4 = alloca ptr, align 8
  %5 = alloca ptr, align 8
  %6 = alloca ptr, align 8
  %7 = alloca ptr, align 8
  %8 = alloca ptr, align 8
  %9 = alloca i64, align 8
  %10 = alloca i64, align 8
  store ptr %0, ptr %4, align 8, !tbaa !3
  store ptr %1, ptr %5, align 8, !tbaa !8
  store ptr %2, ptr %6, align 8, !tbaa !45
  call void @llvm.lifetime.start.p0(i64 8, ptr %7) #5
  call void @llvm.lifetime.start.p0(i64 8, ptr %8) #5
  call void @llvm.lifetime.start.p0(i64 8, ptr %9) #5
  call void @llvm.lifetime.start.p0(i64 8, ptr %10) #5
  %11 = load ptr, ptr %4, align 8, !tbaa !3
  %12 = getelementptr inbounds nuw %struct.lhash_st, ptr %11, i32 0, i32 3
  %13 = load ptr, ptr %12, align 8, !tbaa !14
  %14 = icmp ne ptr %13, null
  br i1 %14, label %15, label %24

15:                                               ; preds = %3
  %16 = load ptr, ptr %4, align 8, !tbaa !3
  %17 = getelementptr inbounds nuw %struct.lhash_st, ptr %16, i32 0, i32 3
  %18 = load ptr, ptr %17, align 8, !tbaa !14
  %19 = load ptr, ptr %5, align 8, !tbaa !8
  %20 = load ptr, ptr %4, align 8, !tbaa !3
  %21 = getelementptr inbounds nuw %struct.lhash_st, ptr %20, i32 0, i32 2
  %22 = load ptr, ptr %21, align 8, !tbaa !19
  %23 = call i64 %18(ptr noundef %19, ptr noundef %22)
  store i64 %23, ptr %9, align 8, !tbaa !27
  br label %30

24:                                               ; preds = %3
  %25 = load ptr, ptr %4, align 8, !tbaa !3
  %26 = getelementptr inbounds nuw %struct.lhash_st, ptr %25, i32 0, i32 2
  %27 = load ptr, ptr %26, align 8, !tbaa !19
  %28 = load ptr, ptr %5, align 8, !tbaa !8
  %29 = call i64 %27(ptr noundef %28)
  store i64 %29, ptr %9, align 8, !tbaa !27
  br label %30

30:                                               ; preds = %24, %15
  %31 = load i64, ptr %9, align 8, !tbaa !27
  %32 = load ptr, ptr %6, align 8, !tbaa !45
  store i64 %31, ptr %32, align 8, !tbaa !27
  %33 = load i64, ptr %9, align 8, !tbaa !27
  %34 = load ptr, ptr %4, align 8, !tbaa !3
  %35 = getelementptr inbounds nuw %struct.lhash_st, ptr %34, i32 0, i32 10
  %36 = load i32, ptr %35, align 4, !tbaa !22
  %37 = zext i32 %36 to i64
  %38 = urem i64 %33, %37
  store i64 %38, ptr %10, align 8, !tbaa !27
  %39 = load i64, ptr %10, align 8, !tbaa !27
  %40 = load ptr, ptr %4, align 8, !tbaa !3
  %41 = getelementptr inbounds nuw %struct.lhash_st, ptr %40, i32 0, i32 9
  %42 = load i32, ptr %41, align 8, !tbaa !43
  %43 = zext i32 %42 to i64
  %44 = icmp ult i64 %39, %43
  br i1 %44, label %45, label %52

45:                                               ; preds = %30
  %46 = load i64, ptr %9, align 8, !tbaa !27
  %47 = load ptr, ptr %4, align 8, !tbaa !3
  %48 = getelementptr inbounds nuw %struct.lhash_st, ptr %47, i32 0, i32 8
  %49 = load i32, ptr %48, align 4, !tbaa !21
  %50 = zext i32 %49 to i64
  %51 = urem i64 %46, %50
  store i64 %51, ptr %10, align 8, !tbaa !27
  br label %52

52:                                               ; preds = %45, %30
  %53 = load ptr, ptr %4, align 8, !tbaa !3
  %54 = getelementptr inbounds nuw %struct.lhash_st, ptr %53, i32 0, i32 0
  %55 = load ptr, ptr %54, align 8, !tbaa !17
  %56 = load i64, ptr %10, align 8, !tbaa !27
  %57 = trunc i64 %56 to i32
  %58 = sext i32 %57 to i64
  %59 = getelementptr inbounds ptr, ptr %55, i64 %58
  store ptr %59, ptr %7, align 8, !tbaa !40
  %60 = load ptr, ptr %7, align 8, !tbaa !40
  %61 = load ptr, ptr %60, align 8, !tbaa !32
  store ptr %61, ptr %8, align 8, !tbaa !32
  br label %62

62:                                               ; preds = %109, %52
  %63 = load ptr, ptr %8, align 8, !tbaa !32
  %64 = icmp ne ptr %63, null
  br i1 %64, label %65, label %113

65:                                               ; preds = %62
  %66 = load ptr, ptr %8, align 8, !tbaa !32
  %67 = getelementptr inbounds nuw %struct.lhash_node_st, ptr %66, i32 0, i32 2
  %68 = load i64, ptr %67, align 8, !tbaa !42
  %69 = load i64, ptr %9, align 8, !tbaa !27
  %70 = icmp ne i64 %68, %69
  br i1 %70, label %71, label %74

71:                                               ; preds = %65
  %72 = load ptr, ptr %8, align 8, !tbaa !32
  %73 = getelementptr inbounds nuw %struct.lhash_node_st, ptr %72, i32 0, i32 1
  store ptr %73, ptr %7, align 8, !tbaa !40
  br label %109

74:                                               ; preds = %65
  %75 = load ptr, ptr %4, align 8, !tbaa !3
  %76 = getelementptr inbounds nuw %struct.lhash_st, ptr %75, i32 0, i32 4
  %77 = load ptr, ptr %76, align 8, !tbaa !9
  %78 = icmp ne ptr %77, null
  br i1 %78, label %79, label %94

79:                                               ; preds = %74
  %80 = load ptr, ptr %4, align 8, !tbaa !3
  %81 = getelementptr inbounds nuw %struct.lhash_st, ptr %80, i32 0, i32 4
  %82 = load ptr, ptr %81, align 8, !tbaa !9
  %83 = load ptr, ptr %8, align 8, !tbaa !32
  %84 = getelementptr inbounds nuw %struct.lhash_node_st, ptr %83, i32 0, i32 0
  %85 = load ptr, ptr %84, align 8, !tbaa !41
  %86 = load ptr, ptr %5, align 8, !tbaa !8
  %87 = load ptr, ptr %4, align 8, !tbaa !3
  %88 = getelementptr inbounds nuw %struct.lhash_st, ptr %87, i32 0, i32 1
  %89 = load ptr, ptr %88, align 8, !tbaa !18
  %90 = call i32 %82(ptr noundef %85, ptr noundef %86, ptr noundef %89)
  %91 = icmp eq i32 %90, 0
  br i1 %91, label %92, label %93

92:                                               ; preds = %79
  br label %113

93:                                               ; preds = %79
  br label %106

94:                                               ; preds = %74
  %95 = load ptr, ptr %4, align 8, !tbaa !3
  %96 = getelementptr inbounds nuw %struct.lhash_st, ptr %95, i32 0, i32 1
  %97 = load ptr, ptr %96, align 8, !tbaa !18
  %98 = load ptr, ptr %8, align 8, !tbaa !32
  %99 = getelementptr inbounds nuw %struct.lhash_node_st, ptr %98, i32 0, i32 0
  %100 = load ptr, ptr %99, align 8, !tbaa !41
  %101 = load ptr, ptr %5, align 8, !tbaa !8
  %102 = call i32 %97(ptr noundef %100, ptr noundef %101)
  %103 = icmp eq i32 %102, 0
  br i1 %103, label %104, label %105

104:                                              ; preds = %94
  br label %113

105:                                              ; preds = %94
  br label %106

106:                                              ; preds = %105, %93
  %107 = load ptr, ptr %8, align 8, !tbaa !32
  %108 = getelementptr inbounds nuw %struct.lhash_node_st, ptr %107, i32 0, i32 1
  store ptr %108, ptr %7, align 8, !tbaa !40
  br label %109

109:                                              ; preds = %106, %71
  %110 = load ptr, ptr %8, align 8, !tbaa !32
  %111 = getelementptr inbounds nuw %struct.lhash_node_st, ptr %110, i32 0, i32 1
  %112 = load ptr, ptr %111, align 8, !tbaa !34
  store ptr %112, ptr %8, align 8, !tbaa !32
  br label %62, !llvm.loop !47

113:                                              ; preds = %104, %92, %62
  %114 = load ptr, ptr %7, align 8, !tbaa !40
  call void @llvm.lifetime.end.p0(i64 8, ptr %10) #5
  call void @llvm.lifetime.end.p0(i64 8, ptr %9) #5
  call void @llvm.lifetime.end.p0(i64 8, ptr %8) #5
  call void @llvm.lifetime.end.p0(i64 8, ptr %7) #5
  ret ptr %114
}

; Function Attrs: nounwind uwtable
define ptr @OPENSSL_LH_delete(ptr noundef %0, ptr noundef %1) #0 {
  %3 = alloca ptr, align 8
  %4 = alloca ptr, align 8
  %5 = alloca ptr, align 8
  %6 = alloca i64, align 8
  %7 = alloca ptr, align 8
  %8 = alloca ptr, align 8
  %9 = alloca ptr, align 8
  %10 = alloca i32, align 4
  store ptr %0, ptr %4, align 8, !tbaa !3
  store ptr %1, ptr %5, align 8, !tbaa !8
  call void @llvm.lifetime.start.p0(i64 8, ptr %6) #5
  call void @llvm.lifetime.start.p0(i64 8, ptr %7) #5
  call void @llvm.lifetime.start.p0(i64 8, ptr %8) #5
  call void @llvm.lifetime.start.p0(i64 8, ptr %9) #5
  %11 = load ptr, ptr %4, align 8, !tbaa !3
  %12 = getelementptr inbounds nuw %struct.lhash_st, ptr %11, i32 0, i32 14
  store i32 0, ptr %12, align 8, !tbaa !39
  %13 = load ptr, ptr %4, align 8, !tbaa !3
  %14 = load ptr, ptr %5, align 8, !tbaa !8
  %15 = call ptr @getrn(ptr noundef %13, ptr noundef %14, ptr noundef %6)
  store ptr %15, ptr %8, align 8, !tbaa !40
  %16 = load ptr, ptr %8, align 8, !tbaa !40
  %17 = load ptr, ptr %16, align 8, !tbaa !32
  %18 = icmp eq ptr %17, null
  br i1 %18, label %19, label %20

19:                                               ; preds = %2
  store ptr null, ptr %3, align 8
  store i32 1, ptr %10, align 4
  br label %58

20:                                               ; preds = %2
  %21 = load ptr, ptr %8, align 8, !tbaa !40
  %22 = load ptr, ptr %21, align 8, !tbaa !32
  store ptr %22, ptr %7, align 8, !tbaa !32
  %23 = load ptr, ptr %7, align 8, !tbaa !32
  %24 = getelementptr inbounds nuw %struct.lhash_node_st, ptr %23, i32 0, i32 1
  %25 = load ptr, ptr %24, align 8, !tbaa !34
  %26 = load ptr, ptr %8, align 8, !tbaa !40
  store ptr %25, ptr %26, align 8, !tbaa !32
  %27 = load ptr, ptr %7, align 8, !tbaa !32
  %28 = getelementptr inbounds nuw %struct.lhash_node_st, ptr %27, i32 0, i32 0
  %29 = load ptr, ptr %28, align 8, !tbaa !41
  store ptr %29, ptr %9, align 8, !tbaa !8
  %30 = load ptr, ptr %7, align 8, !tbaa !32
  call void @CRYPTO_free(ptr noundef %30, ptr noundef @.str, i32 noundef 162)
  br label %31

31:                                               ; preds = %20
  %32 = load ptr, ptr %4, align 8, !tbaa !3
  %33 = getelementptr inbounds nuw %struct.lhash_st, ptr %32, i32 0, i32 13
  %34 = load i64, ptr %33, align 8, !tbaa !38
  %35 = add i64 %34, -1
  store i64 %35, ptr %33, align 8, !tbaa !38
  %36 = load ptr, ptr %4, align 8, !tbaa !3
  %37 = getelementptr inbounds nuw %struct.lhash_st, ptr %36, i32 0, i32 7
  %38 = load i32, ptr %37, align 8, !tbaa !20
  %39 = icmp ugt i32 %38, 16
  br i1 %39, label %40, label %56

40:                                               ; preds = %31
  %41 = load ptr, ptr %4, align 8, !tbaa !3
  %42 = getelementptr inbounds nuw %struct.lhash_st, ptr %41, i32 0, i32 12
  %43 = load i64, ptr %42, align 8, !tbaa !24
  %44 = load ptr, ptr %4, align 8, !tbaa !3
  %45 = getelementptr inbounds nuw %struct.lhash_st, ptr %44, i32 0, i32 13
  %46 = load i64, ptr %45, align 8, !tbaa !38
  %47 = mul i64 %46, 256
  %48 = load ptr, ptr %4, align 8, !tbaa !3
  %49 = getelementptr inbounds nuw %struct.lhash_st, ptr %48, i32 0, i32 7
  %50 = load i32, ptr %49, align 8, !tbaa !20
  %51 = zext i32 %50 to i64
  %52 = udiv i64 %47, %51
  %53 = icmp uge i64 %43, %52
  br i1 %53, label %54, label %56

54:                                               ; preds = %40
  %55 = load ptr, ptr %4, align 8, !tbaa !3
  call void @contract(ptr noundef %55)
  br label %56

56:                                               ; preds = %54, %40, %31
  %57 = load ptr, ptr %9, align 8, !tbaa !8
  store ptr %57, ptr %3, align 8
  store i32 1, ptr %10, align 4
  br label %58

58:                                               ; preds = %56, %19
  call void @llvm.lifetime.end.p0(i64 8, ptr %9) #5
  call void @llvm.lifetime.end.p0(i64 8, ptr %8) #5
  call void @llvm.lifetime.end.p0(i64 8, ptr %7) #5
  call void @llvm.lifetime.end.p0(i64 8, ptr %6) #5
  %59 = load ptr, ptr %3, align 8
  ret ptr %59
}