; Function Attrs: nounwind uwtable
define ptr @OPENSSL_LH_delete(ptr noundef captures(none) initializes((96, 100)) %0, ptr noundef %1) local_unnamed_addr #1 {
  %3 = getelementptr inbounds nuw i8, ptr %0, i64 96
  store i32 0, ptr %3, align 8, !tbaa !32
  %4 = getelementptr inbounds nuw i8, ptr %0, i64 24
  %5 = load ptr, ptr %4, align 8, !tbaa !11
  %.not.i = icmp eq ptr %5, null
  %6 = getelementptr inbounds nuw i8, ptr %0, i64 16
  %7 = load ptr, ptr %6, align 8, !tbaa !16
  br i1 %.not.i, label %10, label %8

8:                                                ; preds = %2
  %9 = tail call i64 %5(ptr noundef %1, ptr noundef %7) #7
  br label %12

10:                                               ; preds = %2
  %11 = tail call i64 %7(ptr noundef %1) #7
  br label %12

12:                                               ; preds = %10, %8
  %.031.i = phi i64 [ %9, %8 ], [ %11, %10 ]
  %13 = getelementptr inbounds nuw i8, ptr %0, i64 68
  %14 = load i32, ptr %13, align 4, !tbaa !19
  %15 = zext i32 %14 to i64
  %16 = urem i64 %.031.i, %15
  %17 = getelementptr inbounds nuw i8, ptr %0, i64 64
  %18 = load i32, ptr %17, align 8, !tbaa !33
  %19 = zext i32 %18 to i64
  %20 = icmp samesign ult i64 %16, %19
  br i1 %20, label %21, label %26

21:                                               ; preds = %12
  %22 = getelementptr inbounds nuw i8, ptr %0, i64 60
  %23 = load i32, ptr %22, align 4, !tbaa !18
  %24 = zext i32 %23 to i64
  %25 = urem i64 %.031.i, %24
  br label %26

26:                                               ; preds = %21, %12
  %.0.i = phi i64 [ %25, %21 ], [ %16, %12 ]
  %27 = load ptr, ptr %0, align 8, !tbaa !14
  %sext.i = shl nuw i64 %.0.i, 32
  %28 = ashr exact i64 %sext.i, 29
  %29 = getelementptr inbounds i8, ptr %27, i64 %28
  %30 = getelementptr inbounds nuw i8, ptr %0, i64 8
  %.03240.i = load ptr, ptr %29, align 8, !tbaa !25
  %.not3741.i = icmp eq ptr %.03240.i, null
  br i1 %.not3741.i, label %contract.exit, label %.lr.ph.i

.lr.ph.i:                                         ; preds = %26
  %31 = getelementptr inbounds nuw i8, ptr %0, i64 32
  br label %32

32:                                               ; preds = %47, %.lr.ph.i
  %.03243.i = phi ptr [ %.03240.i, %.lr.ph.i ], [ %.032.i, %47 ]
  %.03342.i = phi ptr [ %29, %.lr.ph.i ], [ %.1.i, %47 ]
  %33 = getelementptr inbounds nuw i8, ptr %.03243.i, i64 16
  %34 = load i64, ptr %33, align 8, !tbaa !34
  %.not38.i = icmp eq i64 %34, %.031.i
  br i1 %.not38.i, label %35, label %47

35:                                               ; preds = %32
  %36 = load ptr, ptr %31, align 8, !tbaa !3
  %.not39.i = icmp eq ptr %36, null
  br i1 %.not39.i, label %42, label %37

37:                                               ; preds = %35
  %38 = load ptr, ptr %.03243.i, align 8, !tbaa !36
  %39 = load ptr, ptr %30, align 8, !tbaa !15
  %40 = tail call i32 %36(ptr noundef %38, ptr noundef %1, ptr noundef %39) #7
  %41 = icmp eq i32 %40, 0
  br i1 %41, label %getrn.exit, label %47

42:                                               ; preds = %35
  %43 = load ptr, ptr %30, align 8, !tbaa !15
  %44 = load ptr, ptr %.03243.i, align 8, !tbaa !36
  %45 = tail call i32 %43(ptr noundef %44, ptr noundef %1) #7
  %46 = icmp eq i32 %45, 0
  br i1 %46, label %getrn.exit, label %47

47:                                               ; preds = %42, %37, %32
  %.1.i = getelementptr inbounds nuw i8, ptr %.03243.i, i64 8
  %.032.i = load ptr, ptr %.1.i, align 8, !tbaa !25
  %.not37.i = icmp eq ptr %.032.i, null
  br i1 %.not37.i, label %contract.exit, label %32, !llvm.loop !37

getrn.exit:                                       ; preds = %37, %42
  %.pr = load ptr, ptr %.03342.i, align 8, !tbaa !25
  %48 = icmp eq ptr %.pr, null
  br i1 %48, label %contract.exit, label %49

49:                                               ; preds = %getrn.exit
  %50 = getelementptr inbounds nuw i8, ptr %.pr, i64 8
  %51 = load ptr, ptr %50, align 8, !tbaa !27
  store ptr %51, ptr %.03342.i, align 8, !tbaa !25
  %52 = load ptr, ptr %.pr, align 8, !tbaa !36
  tail call void @CRYPTO_free(ptr noundef nonnull %.pr, ptr noundef nonnull @.str, i32 noundef 162) #7
  %53 = getelementptr inbounds nuw i8, ptr %0, i64 88
  %54 = load i64, ptr %53, align 8, !tbaa !31
  %55 = add i64 %54, -1
  store i64 %55, ptr %53, align 8, !tbaa !31
  %56 = getelementptr inbounds nuw i8, ptr %0, i64 56
  %57 = load i32, ptr %56, align 8, !tbaa !17
  %58 = icmp ugt i32 %57, 16
  br i1 %58, label %59, label %contract.exit

59:                                               ; preds = %49
  %60 = getelementptr inbounds nuw i8, ptr %0, i64 80
  %61 = load i64, ptr %60, align 8, !tbaa !21
  %62 = shl i64 %55, 8
  %63 = zext i32 %57 to i64
  %64 = udiv i64 %62, %63
  %.not = icmp ult i64 %61, %64
  br i1 %.not, label %contract.exit, label %65

65:                                               ; preds = %59
  %66 = load ptr, ptr %0, align 8, !tbaa !14
  %67 = load i32, ptr %17, align 8, !tbaa !33
  %68 = load i32, ptr %13, align 4, !tbaa !19
  %69 = add i32 %67, -1
  %70 = add i32 %69, %68
  %71 = zext i32 %70 to i64
  %72 = getelementptr inbounds nuw ptr, ptr %66, i64 %71
  %73 = load ptr, ptr %72, align 8, !tbaa !25
  store ptr null, ptr %72, align 8, !tbaa !25
  %74 = icmp eq i32 %67, 0
  br i1 %74, label %75, label %90

75:                                               ; preds = %65
  %76 = shl i32 %68, 3
  %77 = zext i32 %76 to i64
  %78 = tail call ptr @CRYPTO_realloc(ptr noundef nonnull %66, i64 noundef %77, ptr noundef nonnull @.str, i32 noundef 295) #7
  %79 = icmp eq ptr %78, null
  br i1 %79, label %80, label %83

80:                                               ; preds = %75
  %81 = load i32, ptr %3, align 8, !tbaa !32
  %82 = add nsw i32 %81, 1
  store i32 %82, ptr %3, align 8, !tbaa !32
  %.pre.pre.i = load ptr, ptr %0, align 8, !tbaa !14
  br label %84

83:                                               ; preds = %75
  store ptr %78, ptr %0, align 8, !tbaa !14
  br label %84

84:                                               ; preds = %83, %80
  %.pre.i = phi ptr [ %78, %83 ], [ %.pre.pre.i, %80 ]
  %85 = getelementptr inbounds nuw i8, ptr %0, i64 60
  %86 = load i32, ptr %85, align 4, !tbaa !18
  %87 = lshr i32 %86, 1
  store i32 %87, ptr %85, align 4, !tbaa !18
  %88 = load i32, ptr %13, align 4, !tbaa !19
  %89 = lshr i32 %88, 1
  store i32 %89, ptr %13, align 4, !tbaa !19
  %.pre34.i = add nsw i32 %89, -1
  %.pre = load i32, ptr %56, align 8, !tbaa !17
  br label %90

90:                                               ; preds = %84, %65
  %91 = phi i32 [ %57, %65 ], [ %.pre, %84 ]
  %storemerge.pre-phi.i = phi i32 [ %69, %65 ], [ %.pre34.i, %84 ]
  %92 = phi ptr [ %66, %65 ], [ %.pre.i, %84 ]
  store i32 %storemerge.pre-phi.i, ptr %17, align 8, !tbaa !33
  %93 = add i32 %91, -1
  store i32 %93, ptr %56, align 8, !tbaa !17
  %94 = sext i32 %storemerge.pre-phi.i to i64
  %95 = getelementptr inbounds ptr, ptr %92, i64 %94
  %96 = load ptr, ptr %95, align 8, !tbaa !25
  %97 = icmp eq ptr %96, null
  br i1 %97, label %98, label %.preheader.i

98:                                               ; preds = %90
  store ptr %73, ptr %95, align 8, !tbaa !25
  br label %contract.exit

.preheader.i:                                     ; preds = %90, %.preheader.i
  %.0.i19 = phi ptr [ %100, %.preheader.i ], [ %96, %90 ]
  %99 = getelementptr inbounds nuw i8, ptr %.0.i19, i64 8
  %100 = load ptr, ptr %99, align 8, !tbaa !27
  %.not.i20 = icmp eq ptr %100, null
  br i1 %.not.i20, label %101, label %.preheader.i, !llvm.loop !38

101:                                              ; preds = %.preheader.i
  %102 = getelementptr inbounds nuw i8, ptr %.0.i19, i64 8
  store ptr %73, ptr %102, align 8, !tbaa !27
  br label %contract.exit

contract.exit:                                    ; preds = %47, %26, %101, %98, %49, %59, %getrn.exit
  %.0 = phi ptr [ null, %getrn.exit ], [ %52, %59 ], [ %52, %49 ], [ %52, %98 ], [ %52, %101 ], [ null, %26 ], [ null, %47 ]
  ret ptr %.0
}